target datalayout = "e-m:e-p270:32:32-p271:32:32-p272:64:64-i64:64-i128:128-f80:128-n8:16:32:64-S128"
target triple = "x86_64-unknown-linux-gnu"

%class.anon.1 = type { ptr, ptr }
%class.anon.2 = type { ptr, ptr }

; Function Attrs: mustprogress nounwind uwtable
define internal noundef zeroext i1 @"_ZZN5arrow8internal14DetectIntWidthEPKlPKhlhENK3$_1clEmm"(ptr noundef nonnull align 8 dereferenceable(16) %this, i64 noundef %addend, i64 noundef %test_mask) #0 align 2 {
entry:
  %retval = alloca i1, align 1
  %this.addr = alloca ptr, align 8
  %addend.addr = alloca i64, align 8
  %test_mask.addr = alloca i64, align 8
  %v = alloca i64, align 8
  store ptr %this, ptr %this.addr, align 8
  store i64 %addend, ptr %addend.addr, align 8
  store i64 %test_mask, ptr %test_mask.addr, align 8
  %this1 = load ptr, ptr %this.addr, align 8
  %0 = getelementptr inbounds %class.anon.1, ptr %this1, i32 0, i32 0
  %1 = load ptr, ptr %0, align 8
  %2 = load ptr, ptr %1, align 8
  %arrayidx = getelementptr inbounds i64, ptr %2, i64 0
  %3 = load i64, ptr %arrayidx, align 8
  %4 = load i64, ptr %addend.addr, align 8
  %add = add i64 %3, %4
  %5 = getelementptr inbounds %class.anon.1, ptr %this1, i32 0, i32 1
  %6 = load ptr, ptr %5, align 8
  %7 = load ptr, ptr %6, align 8
  %arrayidx2 = getelementptr inbounds i8, ptr %7, i64 0
  %8 = load i8, ptr %arrayidx2, align 1
  %conv = zext i8 %8 to i32
  %cmp = icmp ne i32 %conv, 0
  %conv3 = zext i1 %cmp to i64
  %mul = mul i64 %add, %conv3
  store i64 %mul, ptr %v, align 8
  %9 = getelementptr inbounds %class.anon.1, ptr %this1, i32 0, i32 1
  %10 = load ptr, ptr %9, align 8
  %11 = load ptr, ptr %10, align 8
  %incdec.ptr = getelementptr inbounds i8, ptr %11, i32 1
  store ptr %incdec.ptr, ptr %10, align 8
  %12 = getelementptr inbounds %class.anon.1, ptr %this1, i32 0, i32 0
  %13 = load ptr, ptr %12, align 8
  %14 = load ptr, ptr %13, align 8
  %incdec.ptr4 = getelementptr inbounds i64, ptr %14, i32 1
  store ptr %incdec.ptr4, ptr %13, align 8
  %15 = load i64, ptr %v, align 8
  %16 = load i64, ptr %test_mask.addr, align 8
  %and = and i64 %15, %16
  %cmp5 = icmp ne i64 %and, 0
  %lnot = xor i1 %cmp5, true
  %lnot6 = xor i1 %lnot, true
  br i1 %lnot6, label %if.then, label %if.else

if.then:                                          ; preds = %entry
  %17 = getelementptr inbounds %class.anon.1, ptr %this1, i32 0, i32 1
  %18 = load ptr, ptr %17, align 8
  %19 = load ptr, ptr %18, align 8
  %incdec.ptr8 = getelementptr inbounds i8, ptr %19, i32 -1
  store ptr %incdec.ptr8, ptr %18, align 8
  %20 = getelementptr inbounds %class.anon.1, ptr %this1, i32 0, i32 0
  %21 = load ptr, ptr %20, align 8
  %22 = load ptr, ptr %21, align 8
  %incdec.ptr9 = getelementptr inbounds i64, ptr %22, i32 -1
  store ptr %incdec.ptr9, ptr %21, align 8
  store i1 false, ptr %retval, align 1
  br label %return

if.else:                                          ; preds = %entry
  store i1 true, ptr %retval, align 1
  br label %return

return:                                           ; preds = %if.else, %if.then
  %23 = load i1, ptr %retval, align 1
  ret i1 %23
}

; Function Attrs: mustprogress uwtable
define noundef zeroext i8 @_ZN5arrow8internal14DetectIntWidthEPKlPKhlh(ptr noundef %values, ptr noundef %valid_bytes, i64 noundef %length, i8 noundef zeroext %min_width) #1 {
entry:
  %retval = alloca i8, align 1
  %values.addr = alloca ptr, align 8
  %valid_bytes.addr = alloca ptr, align 8
  %length.addr = alloca i64, align 8
  %min_width.addr = alloca i8, align 1
  %width = alloca i8, align 1
  %p = alloca ptr, align 8
  %end = alloca ptr, align 8
  %b = alloca ptr, align 8
  %addend8 = alloca i64, align 8
  %addend16 = alloca i64, align 8
  %addend32 = alloca i64, align 8
  %test_one_item = alloca %class.anon.1, align 8
  %test_eight_items = alloca %class.anon.2, align 8
  store ptr %values, ptr %values.addr, align 8
  store ptr %valid_bytes, ptr %valid_bytes.addr, align 8
  store i64 %length, ptr %length.addr, align 8
  store i8 %min_width, ptr %min_width.addr, align 1
  %0 = load ptr, ptr %valid_bytes.addr, align 8
  %cmp = icmp eq ptr %0, null
  br i1 %cmp, label %if.then, label %if.end

if.then:                                          ; preds = %entry
  %1 = load ptr, ptr %values.addr, align 8
  %2 = load i64, ptr %length.addr, align 8
  %3 = load i8, ptr %min_width.addr, align 1
  %call = call noundef zeroext i8 @_ZN5arrow8internal14DetectIntWidthEPKllh(ptr noundef %1, i64 noundef %2, i8 noundef zeroext %3)
  store i8 %call, ptr %retval, align 1
  br label %return

if.end:                                           ; preds = %entry
  %4 = load i8, ptr %min_width.addr, align 1
  %conv = zext i8 %4 to i32
  %cmp1 = icmp eq i32 %conv, 8
  br i1 %cmp1, label %if.then2, label %if.end3

if.then2:                                         ; preds = %if.end
  %5 = load i8, ptr %min_width.addr, align 1
  store i8 %5, ptr %retval, align 1
  br label %return

if.end3:                                          ; preds = %if.end
  %6 = load i8, ptr %min_width.addr, align 1
  store i8 %6, ptr %width, align 1
  %7 = load ptr, ptr %values.addr, align 8
  store ptr %7, ptr %p, align 8
  %8 = load ptr, ptr %p, align 8
  %9 = load i64, ptr %length.addr, align 8
  %add.ptr = getelementptr inbounds i64, ptr %8, i64 %9
  store ptr %add.ptr, ptr %end, align 8
  %10 = load ptr, ptr %valid_bytes.addr, align 8
  store ptr %10, ptr %b, align 8
  store i64 128, ptr %addend8, align 8
  store i64 32768, ptr %addend16, align 8
  store i64 2147483648, ptr %addend32, align 8
  %11 = getelementptr inbounds %class.anon.1, ptr %test_one_item, i32 0, i32 0
  store ptr %p, ptr %11, align 8
  %12 = getelementptr inbounds %class.anon.1, ptr %test_one_item, i32 0, i32 1
  store ptr %b, ptr %12, align 8
  %13 = getelementptr inbounds %class.anon.2, ptr %test_eight_items, i32 0, i32 0
  store ptr %p, ptr %13, align 8
  %14 = getelementptr inbounds %class.anon.2, ptr %test_eight_items, i32 0, i32 1
  store ptr %b, ptr %14, align 8
  %15 = load i8, ptr %width, align 1
  %conv4 = zext i8 %15 to i32
  %cmp5 = icmp eq i32 %conv4, 1
  br i1 %cmp5, label %if.then6, label %if.end19

if.then6:                                         ; preds = %if.end3
  br label %while.cond

while.cond:                                       ; preds = %if.end11, %if.then6
  %16 = load ptr, ptr %p, align 8
  %17 = load ptr, ptr %end, align 8
  %add.ptr7 = getelementptr inbounds i64, ptr %17, i64 -8
  %cmp8 = icmp ule ptr %16, %add.ptr7
  br i1 %cmp8, label %while.body, label %while.end

while.body:                                       ; preds = %while.cond
  %call9 = call noundef zeroext i1 @"_ZZN5arrow8internal14DetectIntWidthEPKlPKhlhENK3$_0clEmm"(ptr noundef nonnull align 8 dereferenceable(16) %test_eight_items, i64 noundef 128, i64 noundef -256)
  br i1 %call9, label %if.end11, label %if.then10

if.then10:                                        ; preds = %while.body
  store i8 2, ptr %width, align 1
  br label %width2

if.end11:                                         ; preds = %while.body
  br label %while.cond, !llvm.loop !143

while.end:                                        ; preds = %while.cond
  br label %while.cond12

while.cond12:                                     ; preds = %if.end17, %while.end
  %18 = load ptr, ptr %p, align 8
  %19 = load ptr, ptr %end, align 8
  %cmp13 = icmp ult ptr %18, %19
  br i1 %cmp13, label %while.body14, label %while.end18

while.body14:                                     ; preds = %while.cond12
  %call15 = call noundef zeroext i1 @"_ZZN5arrow8internal14DetectIntWidthEPKlPKhlhENK3$_1clEmm"(ptr noundef nonnull align 8 dereferenceable(16) %test_one_item, i64 noundef 128, i64 noundef -256)
  br i1 %call15, label %if.end17, label %if.then16

if.then16:                                        ; preds = %while.body14
  store i8 2, ptr %width, align 1
  br label %width2

if.end17:                                         ; preds = %while.body14
  br label %while.cond12, !llvm.loop !144

while.end18:                                      ; preds = %while.cond12
  store i8 1, ptr %retval, align 1
  br label %return

if.end19:                                         ; preds = %if.end3
  br label %width2

width2:                                           ; preds = %if.end19, %if.then16, %if.then10
  %20 = load i8, ptr %width, align 1
  %conv20 = zext i8 %20 to i32
  %cmp21 = icmp eq i32 %conv20, 2
  br i1 %cmp21, label %if.then22, label %if.end38

if.then22:                                        ; preds = %width2
  br label %while.cond23

while.cond23:                                     ; preds = %if.end29, %if.then22
  %21 = load ptr, ptr %p, align 8
  %22 = load ptr, ptr %end, align 8
  %add.ptr24 = getelementptr inbounds i64, ptr %22, i64 -8
  %cmp25 = icmp ule ptr %21, %add.ptr24
  br i1 %cmp25, label %while.body26, label %while.end30

while.body26:                                     ; preds = %while.cond23
  %call27 = call noundef zeroext i1 @"_ZZN5arrow8internal14DetectIntWidthEPKlPKhlhENK3$_0clEmm"(ptr noundef nonnull align 8 dereferenceable(16) %test_eight_items, i64 noundef 32768, i64 noundef -65536)
  br i1 %call27, label %if.end29, label %if.then28

if.then28:                                        ; preds = %while.body26
  store i8 4, ptr %width, align 1
  br label %width4

if.end29:                                         ; preds = %while.body26
  br label %while.cond23, !llvm.loop !145

while.end30:                                      ; preds = %while.cond23
  br label %while.cond31

while.cond31:                                     ; preds = %if.end36, %while.end30
  %23 = load ptr, ptr %p, align 8
  %24 = load ptr, ptr %end, align 8
  %cmp32 = icmp ult ptr %23, %24
  br i1 %cmp32, label %while.body33, label %while.end37

while.body33:                                     ; preds = %while.cond31
  %call34 = call noundef zeroext i1 @"_ZZN5arrow8internal14DetectIntWidthEPKlPKhlhENK3$_1clEmm"(ptr noundef nonnull align 8 dereferenceable(16) %test_one_item, i64 noundef 32768, i64 noundef -65536)
  br i1 %call34, label %if.end36, label %if.then35

if.then35:                                        ; preds = %while.body33
  store i8 4, ptr %width, align 1
  br label %width4

if.end36:                                         ; preds = %while.body33
  br label %while.cond31, !llvm.loop !146

while.end37:                                      ; preds = %while.cond31
  store i8 2, ptr %retval, align 1
  br label %return

if.end38:                                         ; preds = %width2
  br label %width4

width4:                                           ; preds = %if.end38, %if.then35, %if.then28
  %25 = load i8, ptr %width, align 1
  %conv39 = zext i8 %25 to i32
  %cmp40 = icmp eq i32 %conv39, 4
  br i1 %cmp40, label %if.then41, label %if.end57

if.then41:                                        ; preds = %width4
  br label %while.cond42

while.cond42:                                     ; preds = %if.end48, %if.then41
  %26 = load ptr, ptr %p, align 8
  %27 = load ptr, ptr %end, align 8
  %add.ptr43 = getelementptr inbounds i64, ptr %27, i64 -8
  %cmp44 = icmp ule ptr %26, %add.ptr43
  br i1 %cmp44, label %while.body45, label %while.end49

while.body45:                                     ; preds = %while.cond42
  %call46 = call noundef zeroext i1 @"_ZZN5arrow8internal14DetectIntWidthEPKlPKhlhENK3$_0clEmm"(ptr noundef nonnull align 8 dereferenceable(16) %test_eight_items, i64 noundef 2147483648, i64 noundef -4294967296)
  br i1 %call46, label %if.end48, label %if.then47

if.then47:                                        ; preds = %while.body45
  store i8 8, ptr %width, align 1
  br label %width8

if.end48:                                         ; preds = %while.body45
  br label %while.cond42, !llvm.loop !147

while.end49:                                      ; preds = %while.cond42
  br label %while.cond50

while.cond50:                                     ; preds = %if.end55, %while.end49
  %28 = load ptr, ptr %p, align 8
  %29 = load ptr, ptr %end, align 8
  %cmp51 = icmp ult ptr %28, %29
  br i1 %cmp51, label %while.body52, label %while.end56

while.body52:                                     ; preds = %while.cond50
  %call53 = call noundef zeroext i1 @"_ZZN5arrow8internal14DetectIntWidthEPKlPKhlhENK3$_1clEmm"(ptr noundef nonnull align 8 dereferenceable(16) %test_one_item, i64 noundef 2147483648, i64 noundef -4294967296)
  br i1 %call53, label %if.end55, label %if.then54

if.then54:                                        ; preds = %while.body52
  store i8 8, ptr %width, align 1
  br label %width8

if.end55:                                         ; preds = %while.body52
  br label %while.cond50, !llvm.loop !148

while.end56:                                      ; preds = %while.cond50
  store i8 4, ptr %retval, align 1
  br label %return

if.end57:                                         ; preds = %width4
  br label %width8

width8:                                           ; preds = %if.end57, %if.then54, %if.then47
  store i8 8, ptr %retval, align 1
  br label %return

return:                                           ; preds = %width8, %while.end56, %while.end37, %while.end18, %if.then2, %if.then
  %30 = load i8, ptr %retval, align 1
  ret i8 %30
}