; Function Attrs: mustprogress nofree norecurse nosync nounwind memory(readwrite, inaccessiblemem: none) uwtable
define noundef zeroext i8 @_ZN5arrow8internal14DetectIntWidthEPKlPKhlh(ptr noundef %values, ptr noundef %valid_bytes, i64 noundef %length, i8 noundef zeroext %min_width) local_unnamed_addr #2 {
entry:
  %p = alloca ptr, align 8
  %b = alloca ptr, align 8
  %test_eight_items = alloca %class.anon.2, align 8
  %cmp = icmp eq ptr %valid_bytes, null
  br i1 %cmp, label %if.then, label %if.end

if.then:                                          ; preds = %entry
  %call = tail call noundef zeroext i8 @_ZN5arrow8internal14DetectIntWidthEPKllh(ptr noundef %values, i64 noundef %length, i8 noundef zeroext %min_width)
  br label %return

if.end:                                           ; preds = %entry
  %cmp1 = icmp eq i8 %min_width, 8
  br i1 %cmp1, label %return, label %if.end3

if.end3:                                          ; preds = %if.end
  store ptr %values, ptr %p, align 8
  %add.ptr = getelementptr inbounds i64, ptr %values, i64 %length
  store ptr %valid_bytes, ptr %b, align 8
  store ptr %p, ptr %test_eight_items, align 8
  %0 = getelementptr inbounds i8, ptr %test_eight_items, i64 8
  store ptr %b, ptr %0, align 8
  switch i8 %min_width, label %return [
    i8 1, label %while.cond.preheader
    i8 2, label %while.cond23.preheader
    i8 4, label %while.cond42.preheader
  ]

while.cond.preheader:                             ; preds = %if.end3
  %add.ptr7 = getelementptr inbounds i8, ptr %add.ptr, i64 -64
  br label %while.cond

while.cond:                                       ; preds = %while.cond.preheader, %while.body
  %1 = load ptr, ptr %p, align 8
  %cmp8.not = icmp ugt ptr %1, %add.ptr7
  br i1 %cmp8.not, label %while.cond12.preheader, label %while.body

while.cond12.preheader:                           ; preds = %while.cond
  %b.promoted = load ptr, ptr %b, align 8
  br label %while.cond12

while.body:                                       ; preds = %while.cond
  %call9 = call fastcc noundef zeroext i1 @"_ZZN5arrow8internal14DetectIntWidthEPKlPKhlhENK3$_0clEmm"(ptr noundef nonnull align 8 dereferenceable(16) %test_eight_items, i64 noundef 128, i64 noundef -256)
  br i1 %call9, label %while.cond, label %while.cond23.preheader, !llvm.loop !143

while.cond12:                                     ; preds = %while.cond12.preheader, %while.body14
  %incdec.ptr.i62 = phi ptr [ %b.promoted, %while.cond12.preheader ], [ %incdec.ptr.i, %while.body14 ]
  %incdec.ptr4.i61 = phi ptr [ %1, %while.cond12.preheader ], [ %incdec.ptr4.i, %while.body14 ]
  %cmp13 = icmp ult ptr %incdec.ptr4.i61, %add.ptr
  br i1 %cmp13, label %while.body14, label %return

while.body14:                                     ; preds = %while.cond12
  %2 = load i64, ptr %incdec.ptr4.i61, align 8
  %add.i = add i64 %2, 128
  %3 = load i8, ptr %incdec.ptr.i62, align 1
  %cmp.not.i = icmp eq i8 %3, 0
  %incdec.ptr.i = getelementptr inbounds i8, ptr %incdec.ptr.i62, i64 1
  store ptr %incdec.ptr.i, ptr %b, align 8
  %incdec.ptr4.i = getelementptr inbounds i8, ptr %incdec.ptr4.i61, i64 8
  store ptr %incdec.ptr4.i, ptr %p, align 8
  %cmp5.not.i49 = icmp ult i64 %add.i, 256
  %cmp5.not.i = select i1 %cmp.not.i, i1 true, i1 %cmp5.not.i49
  br i1 %cmp5.not.i, label %while.cond12, label %"_ZZN5arrow8internal14DetectIntWidthEPKlPKhlhENK3$_1clEmm.exit.thread", !llvm.loop !144

"_ZZN5arrow8internal14DetectIntWidthEPKlPKhlhENK3$_1clEmm.exit.thread": ; preds = %while.body14
  store ptr %incdec.ptr.i62, ptr %b, align 8
  store ptr %incdec.ptr4.i61, ptr %p, align 8
  br label %while.cond23.preheader

while.cond23.preheader:                           ; preds = %while.body, %if.end3, %"_ZZN5arrow8internal14DetectIntWidthEPKlPKhlhENK3$_1clEmm.exit.thread"
  %add.ptr24 = getelementptr inbounds i8, ptr %add.ptr, i64 -64
  br label %while.cond23

while.cond23:                                     ; preds = %while.cond23.preheader, %while.body26
  %4 = load ptr, ptr %p, align 8
  %cmp25.not = icmp ugt ptr %4, %add.ptr24
  br i1 %cmp25.not, label %while.cond31.preheader, label %while.body26

while.cond31.preheader:                           ; preds = %while.cond23
  %b.promoted65 = load ptr, ptr %b, align 8
  br label %while.cond31

while.body26:                                     ; preds = %while.cond23
  %call27 = call fastcc noundef zeroext i1 @"_ZZN5arrow8internal14DetectIntWidthEPKlPKhlhENK3$_0clEmm"(ptr noundef nonnull align 8 dereferenceable(16) %test_eight_items, i64 noundef 32768, i64 noundef -65536)
  br i1 %call27, label %while.cond23, label %while.cond42.preheader, !llvm.loop !145

while.cond31:                                     ; preds = %while.cond31.preheader, %while.body33
  %incdec.ptr.i1766 = phi ptr [ %b.promoted65, %while.cond31.preheader ], [ %incdec.ptr.i17, %while.body33 ]
  %incdec.ptr4.i1864 = phi ptr [ %4, %while.cond31.preheader ], [ %incdec.ptr4.i18, %while.body33 ]
  %cmp32 = icmp ult ptr %incdec.ptr4.i1864, %add.ptr
  br i1 %cmp32, label %while.body33, label %return

while.body33:                                     ; preds = %while.cond31
  %5 = load i64, ptr %incdec.ptr4.i1864, align 8
  %add.i14 = add i64 %5, 32768
  %6 = load i8, ptr %incdec.ptr.i1766, align 1
  %cmp.not.i15 = icmp eq i8 %6, 0
  %incdec.ptr.i17 = getelementptr inbounds i8, ptr %incdec.ptr.i1766, i64 1
  store ptr %incdec.ptr.i17, ptr %b, align 8
  %incdec.ptr4.i18 = getelementptr inbounds i8, ptr %incdec.ptr4.i1864, i64 8
  store ptr %incdec.ptr4.i18, ptr %p, align 8
  %cmp5.not.i2050 = icmp ult i64 %add.i14, 65536
  %cmp5.not.i20 = select i1 %cmp.not.i15, i1 true, i1 %cmp5.not.i2050
  br i1 %cmp5.not.i20, label %while.cond31, label %"_ZZN5arrow8internal14DetectIntWidthEPKlPKhlhENK3$_1clEmm.exit24.thread", !llvm.loop !146

"_ZZN5arrow8internal14DetectIntWidthEPKlPKhlhENK3$_1clEmm.exit24.thread": ; preds = %while.body33
  store ptr %incdec.ptr.i1766, ptr %b, align 8
  store ptr %incdec.ptr4.i1864, ptr %p, align 8
  br label %while.cond42.preheader

while.cond42.preheader:                           ; preds = %while.body26, %if.end3, %"_ZZN5arrow8internal14DetectIntWidthEPKlPKhlhENK3$_1clEmm.exit24.thread"
  %add.ptr43 = getelementptr inbounds i8, ptr %add.ptr, i64 -64
  br label %while.cond42

while.cond42:                                     ; preds = %while.cond42.preheader, %while.body45
  %7 = load ptr, ptr %p, align 8
  %cmp44.not = icmp ugt ptr %7, %add.ptr43
  br i1 %cmp44.not, label %while.cond50.preheader, label %while.body45

while.cond50.preheader:                           ; preds = %while.cond42
  %b.promoted69 = load ptr, ptr %b, align 8
  br label %while.cond50

while.body45:                                     ; preds = %while.cond42
  %call46 = call fastcc noundef zeroext i1 @"_ZZN5arrow8internal14DetectIntWidthEPKlPKhlhENK3$_0clEmm"(ptr noundef nonnull align 8 dereferenceable(16) %test_eight_items, i64 noundef 2147483648, i64 noundef -4294967296)
  br i1 %call46, label %while.cond42, label %return, !llvm.loop !147

while.cond50:                                     ; preds = %while.cond50.preheader, %while.body52
  %incdec.ptr.i2870 = phi ptr [ %b.promoted69, %while.cond50.preheader ], [ %incdec.ptr.i28, %while.body52 ]
  %incdec.ptr4.i2968 = phi ptr [ %7, %while.cond50.preheader ], [ %incdec.ptr4.i29, %while.body52 ]
  %cmp51 = icmp ult ptr %incdec.ptr4.i2968, %add.ptr
  br i1 %cmp51, label %while.body52, label %return

while.body52:                                     ; preds = %while.cond50
  %8 = load i64, ptr %incdec.ptr4.i2968, align 8
  %add.i25 = add i64 %8, 2147483648
  %9 = load i8, ptr %incdec.ptr.i2870, align 1
  %cmp.not.i26 = icmp eq i8 %9, 0
  %incdec.ptr.i28 = getelementptr inbounds i8, ptr %incdec.ptr.i2870, i64 1
  store ptr %incdec.ptr.i28, ptr %b, align 8
  %incdec.ptr4.i29 = getelementptr inbounds i8, ptr %incdec.ptr4.i2968, i64 8
  store ptr %incdec.ptr4.i29, ptr %p, align 8
  %cmp5.not.i3151 = icmp ult i64 %add.i25, 4294967296
  %cmp5.not.i31 = select i1 %cmp.not.i26, i1 true, i1 %cmp5.not.i3151
  br i1 %cmp5.not.i31, label %while.cond50, label %return, !llvm.loop !148

return:                                           ; preds = %while.cond12, %while.cond31, %while.body45, %while.cond50, %while.body52, %if.end3, %if.end, %if.then
  %retval.0 = phi i8 [ %call, %if.then ], [ 8, %if.end ], [ 8, %if.end3 ], [ 8, %while.body52 ], [ 4, %while.cond50 ], [ 8, %while.body45 ], [ 2, %while.cond31 ], [ 1, %while.cond12 ]
  ret i8 %retval.0
}